target datalayout = "e-m:e-p270:32:32-p271:32:32-p272:64:64-i64:64-i128:128-f80:128-n8:16:32:64-S128"
target triple = "x86_64-pc-linux-gnu"

%struct.XLogRecData = type { ptr, ptr, i32 }
%struct.registered_buffer = type { i8, i8, %struct.RelFileLocator, i32, i32, ptr, i32, ptr, ptr, [2 x %struct.XLogRecData], [8196 x i8] }
%struct.RelFileLocator = type { i32, i32, i32 }

@.str.1 = private unnamed_addr constant [13 x i8] c"xloginsert.c\00", align 1
@registered_buffers = internal global ptr null, align 8
@max_rdatas = internal global i32 0, align 4
@rdatas = internal global ptr null, align 8
@num_rdatas = internal global i32 0, align 4
@.str.5 = private unnamed_addr constant [18 x i8] c"too much WAL data\00", align 1
@.str.6 = private unnamed_addr constant [47 x i8] c"%d out of %d data segments are already in use.\00", align 1
@.str.7 = private unnamed_addr constant [50 x i8] c"no block with id %d registered with WAL insertion\00", align 1
@__func__.XLogRegisterBufData = private unnamed_addr constant [20 x i8] c"XLogRegisterBufData\00", align 1
@.str.8 = private unnamed_addr constant [95 x i8] c"Registering more than maximum %u bytes allowed to block %u: current %u bytes, adding %u bytes.\00", align 1

; Function Attrs: nounwind uwtable
define dso_local void @XLogRegisterBufData(i8 noundef zeroext %0, ptr noundef %1, i32 noundef %2) #0 {
  %4 = alloca i8, align 1
  %5 = alloca ptr, align 8
  %6 = alloca i32, align 4
  %7 = alloca ptr, align 8
  %8 = alloca ptr, align 8
  store i8 %0, ptr %4, align 1
  store ptr %1, ptr %5, align 8
  store i32 %2, ptr %6, align 4
  call void @llvm.lifetime.start.p0(i64 8, ptr %7) #9
  call void @llvm.lifetime.start.p0(i64 8, ptr %8) #9
  %9 = load ptr, ptr @registered_buffers, align 8
  %10 = load i8, ptr %4, align 1
  %11 = zext i8 %10 to i64
  %12 = getelementptr inbounds nuw %struct.registered_buffer, ptr %9, i64 %11
  store ptr %12, ptr %7, align 8
  %13 = load ptr, ptr %7, align 8
  %14 = getelementptr inbounds nuw %struct.registered_buffer, ptr %13, i32 0, i32 0
  %15 = load i8, ptr %14, align 8, !range !4, !noundef !5
  %16 = trunc i8 %15 to i1
  br i1 %16, label %30, label %17

17:                                               ; preds = %3
  br label %18

18:                                               ; preds = %17
  br i1 true, label %19, label %21

19:                                               ; preds = %18
  %20 = call zeroext i1 @errstart_cold(i32 noundef 21, ptr noundef null) #8
  br i1 %20, label %23, label %27

21:                                               ; preds = %18
  %22 = call zeroext i1 @errstart(i32 noundef 21, ptr noundef null)
  br i1 %22, label %23, label %27

23:                                               ; preds = %21, %19
  %24 = load i8, ptr %4, align 1
  %25 = zext i8 %24 to i32
  %26 = call i32 (ptr, ...) @errmsg_internal(ptr noundef @.str.7, i32 noundef %25)
  call void @errfinish(ptr noundef @.str.1, i32 noundef 416, ptr noundef @__func__.XLogRegisterBufData)
  br label %27

27:                                               ; preds = %23, %21, %19
  unreachable

28:                                               ; No predecessors!
  br label %29

29:                                               ; preds = %28
  br label %30

30:                                               ; preds = %29, %3
  %31 = load i32, ptr @num_rdatas, align 4
  %32 = load i32, ptr @max_rdatas, align 4
  %33 = icmp sge i32 %31, %32
  br i1 %33, label %34, label %48

34:                                               ; preds = %30
  br label %35

35:                                               ; preds = %34
  br i1 true, label %36, label %38

36:                                               ; preds = %35
  %37 = call zeroext i1 @errstart_cold(i32 noundef 21, ptr noundef null) #8
  br i1 %37, label %40, label %45

38:                                               ; preds = %35
  %39 = call zeroext i1 @errstart(i32 noundef 21, ptr noundef null)
  br i1 %39, label %40, label %45

40:                                               ; preds = %38, %36
  %41 = call i32 (ptr, ...) @errmsg_internal(ptr noundef @.str.5)
  %42 = load i32, ptr @num_rdatas, align 4
  %43 = load i32, ptr @max_rdatas, align 4
  %44 = call i32 (ptr, ...) @errdetail_internal(ptr noundef @.str.6, i32 noundef %42, i32 noundef %43)
  call void @errfinish(ptr noundef @.str.1, i32 noundef 428, ptr noundef @__func__.XLogRegisterBufData)
  br label %45

45:                                               ; preds = %40, %38, %36
  unreachable

46:                                               ; No predecessors!
  br label %47

47:                                               ; preds = %46
  br label %48

48:                                               ; preds = %47, %30
  %49 = load ptr, ptr %7, align 8
  %50 = getelementptr inbounds nuw %struct.registered_buffer, ptr %49, i32 0, i32 6
  %51 = load i32, ptr %50, align 8
  %52 = load i32, ptr %6, align 4
  %53 = add i32 %51, %52
  %54 = icmp ugt i32 %53, 65535
  br i1 %54, label %58, label %55

55:                                               ; preds = %48
  %56 = load i32, ptr %6, align 4
  %57 = icmp ugt i32 %56, 65535
  br i1 %57, label %58, label %76

58:                                               ; preds = %55, %48
  br label %59

59:                                               ; preds = %58
  br i1 true, label %60, label %62

60:                                               ; preds = %59
  %61 = call zeroext i1 @errstart_cold(i32 noundef 21, ptr noundef null) #8
  br i1 %61, label %64, label %73

62:                                               ; preds = %59
  %63 = call zeroext i1 @errstart(i32 noundef 21, ptr noundef null)
  br i1 %63, label %64, label %73

64:                                               ; preds = %62, %60
  %65 = call i32 (ptr, ...) @errmsg_internal(ptr noundef @.str.5)
  %66 = load i8, ptr %4, align 1
  %67 = zext i8 %66 to i32
  %68 = load ptr, ptr %7, align 8
  %69 = getelementptr inbounds nuw %struct.registered_buffer, ptr %68, i32 0, i32 6
  %70 = load i32, ptr %69, align 8
  %71 = load i32, ptr %6, align 4
  %72 = call i32 (ptr, ...) @errdetail_internal(ptr noundef @.str.8, i32 noundef 65535, i32 noundef %67, i32 noundef %70, i32 noundef %71)
  call void @errfinish(ptr noundef @.str.1, i32 noundef 433, ptr noundef @__func__.XLogRegisterBufData)
  br label %73

73:                                               ; preds = %64, %62, %60
  unreachable

74:                                               ; No predecessors!
  br label %75

75:                                               ; preds = %74
  br label %76

76:                                               ; preds = %75, %55
  %77 = load ptr, ptr @rdatas, align 8
  %78 = load i32, ptr @num_rdatas, align 4
  %79 = add i32 %78, 1
  store i32 %79, ptr @num_rdatas, align 4
  %80 = sext i32 %78 to i64
  %81 = getelementptr inbounds %struct.XLogRecData, ptr %77, i64 %80
  store ptr %81, ptr %8, align 8
  %82 = load ptr, ptr %5, align 8
  %83 = load ptr, ptr %8, align 8
  %84 = getelementptr inbounds nuw %struct.XLogRecData, ptr %83, i32 0, i32 1
  store ptr %82, ptr %84, align 8
  %85 = load i32, ptr %6, align 4
  %86 = load ptr, ptr %8, align 8
  %87 = getelementptr inbounds nuw %struct.XLogRecData, ptr %86, i32 0, i32 2
  store i32 %85, ptr %87, align 8
  %88 = load ptr, ptr %8, align 8
  %89 = load ptr, ptr %7, align 8
  %90 = getelementptr inbounds nuw %struct.registered_buffer, ptr %89, i32 0, i32 8
  %91 = load ptr, ptr %90, align 8
  %92 = getelementptr inbounds nuw %struct.XLogRecData, ptr %91, i32 0, i32 0
  store ptr %88, ptr %92, align 8
  %93 = load ptr, ptr %8, align 8
  %94 = load ptr, ptr %7, align 8
  %95 = getelementptr inbounds nuw %struct.registered_buffer, ptr %94, i32 0, i32 8
  store ptr %93, ptr %95, align 8
  %96 = load i32, ptr %6, align 4
  %97 = load ptr, ptr %7, align 8
  %98 = getelementptr inbounds nuw %struct.registered_buffer, ptr %97, i32 0, i32 6
  %99 = load i32, ptr %98, align 8
  %100 = add i32 %99, %96
  store i32 %100, ptr %98, align 8
  call void @llvm.lifetime.end.p0(i64 8, ptr %8) #9
  call void @llvm.lifetime.end.p0(i64 8, ptr %7) #9
  ret void
}