; Function Attrs: nounwind uwtable
define dso_local void @XLogRegisterBufData(i8 noundef zeroext %0, ptr noundef %1, i32 noundef %2) local_unnamed_addr #0 {
  %4 = load ptr, ptr @registered_buffers, align 8
  %5 = zext i8 %0 to i64
  %6 = getelementptr inbounds nuw %struct.registered_buffer, ptr %4, i64 %5
  %7 = load i8, ptr %6, align 8, !range !6, !noundef !7
  %8 = trunc nuw i8 %7 to i1
  br i1 %8, label %13, label %9

9:                                                ; preds = %3
  %10 = tail call zeroext i1 @errstart_cold(i32 noundef 21, ptr noundef null) #11
  tail call void @llvm.assume(i1 %10)
  %11 = zext i8 %0 to i32
  %12 = tail call i32 (ptr, ...) @errmsg_internal(ptr noundef nonnull @.str.7, i32 noundef %11) #10
  tail call void @errfinish(ptr noundef nonnull @.str.1, i32 noundef 416, ptr noundef nonnull @__func__.XLogRegisterBufData) #10
  unreachable

13:                                               ; preds = %3
  %14 = load i32, ptr @num_rdatas, align 4
  %15 = load i32, ptr @max_rdatas, align 4
  %.not = icmp slt i32 %14, %15
  br i1 %.not, label %22, label %16

16:                                               ; preds = %13
  %17 = tail call zeroext i1 @errstart_cold(i32 noundef 21, ptr noundef null) #11
  tail call void @llvm.assume(i1 %17)
  %18 = tail call i32 (ptr, ...) @errmsg_internal(ptr noundef nonnull @.str.5) #10
  %19 = load i32, ptr @num_rdatas, align 4
  %20 = load i32, ptr @max_rdatas, align 4
  %21 = tail call i32 (ptr, ...) @errdetail_internal(ptr noundef nonnull @.str.6, i32 noundef %19, i32 noundef %20) #10
  tail call void @errfinish(ptr noundef nonnull @.str.1, i32 noundef 428, ptr noundef nonnull @__func__.XLogRegisterBufData) #10
  unreachable

22:                                               ; preds = %13
  %23 = getelementptr inbounds nuw i8, ptr %6, i64 32
  %24 = load i32, ptr %23, align 8
  %25 = add i32 %24, %2
  %26 = or i32 %25, %2
  %or.cond.not = icmp ult i32 %26, 65536
  br i1 %or.cond.not, label %33, label %27

27:                                               ; preds = %22
  %28 = tail call zeroext i1 @errstart_cold(i32 noundef 21, ptr noundef null) #11
  tail call void @llvm.assume(i1 %28)
  %29 = tail call i32 (ptr, ...) @errmsg_internal(ptr noundef nonnull @.str.5) #10
  %30 = zext i8 %0 to i32
  %31 = load i32, ptr %23, align 8
  %32 = tail call i32 (ptr, ...) @errdetail_internal(ptr noundef nonnull @.str.8, i32 noundef 65535, i32 noundef %30, i32 noundef %31, i32 noundef %2) #10
  tail call void @errfinish(ptr noundef nonnull @.str.1, i32 noundef 433, ptr noundef nonnull @__func__.XLogRegisterBufData) #10
  unreachable

33:                                               ; preds = %22
  %34 = load ptr, ptr @rdatas, align 8
  %35 = add nsw i32 %14, 1
  store i32 %35, ptr @num_rdatas, align 4
  %36 = sext i32 %14 to i64
  %37 = getelementptr inbounds %struct.XLogRecData, ptr %34, i64 %36
  %38 = getelementptr inbounds nuw i8, ptr %37, i64 8
  store ptr %1, ptr %38, align 8
  %39 = getelementptr inbounds nuw i8, ptr %37, i64 16
  store i32 %2, ptr %39, align 8
  %40 = getelementptr inbounds nuw i8, ptr %6, i64 48
  %41 = load ptr, ptr %40, align 8
  store ptr %37, ptr %41, align 8
  store ptr %37, ptr %40, align 8
  %42 = load i32, ptr %23, align 8
  %43 = add i32 %42, %2
  store i32 %43, ptr %23, align 8
  ret void
}